target datalayout = "e-m:e-p270:32:32-p271:32:32-p272:64:64-i64:64-i128:128-f80:128-n8:16:32:64-S128"
target triple = "x86_64-pc-linux-gnu"

%"class.llvm::Bitset" = type { %"struct.std::array" }
%"struct.std::array" = type { [2 x i64] }
%"class.(anonymous namespace)::RISCVInstructionSelector" = type { %"class.llvm::InstructionSelector", ptr, ptr, ptr, ptr, ptr, ptr, %"class.llvm::Bitset", %"class.llvm::Bitset", %"struct.llvm::GIMatchTableExecutor::MatcherState", %"struct.llvm::GIMatchTableExecutor::ExecInfoTy" }
%"class.llvm::InstructionSelector" = type { %"class.llvm::GIMatchTableExecutor", ptr, ptr, ptr }
%"class.llvm::GIMatchTableExecutor" = type { ptr, ptr, ptr, ptr, ptr, ptr, ptr }
%"struct.llvm::GIMatchTableExecutor::MatcherState" = type { %"class.std::vector", %"class.llvm::SmallVector", %"class.llvm::DenseMap", %"struct.std::array.0", %"class.llvm::SmallVector.1" }
%"class.std::vector" = type { %"struct.std::_Vector_base" }
%"struct.std::_Vector_base" = type { %"struct.std::_Vector_base<llvm::SmallVector<std::function<void (llvm::MachineInstrBuilder &)>, 4>, std::allocator<llvm::SmallVector<std::function<void (llvm::MachineInstrBuilder &)>, 4>>>::_Vector_impl" }
%"struct.std::_Vector_base<llvm::SmallVector<std::function<void (llvm::MachineInstrBuilder &)>, 4>, std::allocator<llvm::SmallVector<std::function<void (llvm::MachineInstrBuilder &)>, 4>>>::_Vector_impl" = type { %"struct.std::_Vector_base<llvm::SmallVector<std::function<void (llvm::MachineInstrBuilder &)>, 4>, std::allocator<llvm::SmallVector<std::function<void (llvm::MachineInstrBuilder &)>, 4>>>::_Vector_impl_data" }
%"struct.std::_Vector_base<llvm::SmallVector<std::function<void (llvm::MachineInstrBuilder &)>, 4>, std::allocator<llvm::SmallVector<std::function<void (llvm::MachineInstrBuilder &)>, 4>>>::_Vector_impl_data" = type { ptr, ptr, ptr }
%"class.llvm::SmallVector" = type { %"class.llvm::SmallVectorImpl", %"struct.llvm::SmallVectorStorage" }
%"class.llvm::SmallVectorImpl" = type { %"class.llvm::SmallVectorTemplateBase" }
%"class.llvm::SmallVectorTemplateBase" = type { %"class.llvm::SmallVectorTemplateCommon" }
%"class.llvm::SmallVectorTemplateCommon" = type { %"class.llvm::SmallVectorBase" }
%"class.llvm::SmallVectorBase" = type { ptr, i32, i32 }
%"struct.llvm::SmallVectorStorage" = type { [32 x i8] }
%"class.llvm::DenseMap" = type <{ ptr, i32, i32, i32, [4 x i8] }>
%"struct.std::array.0" = type { [3 x ptr] }
%"class.llvm::SmallVector.1" = type { %"class.llvm::SmallVectorImpl.2", %"struct.llvm::SmallVectorStorage.5" }
%"class.llvm::SmallVectorImpl.2" = type { %"class.llvm::SmallVectorTemplateBase.3" }
%"class.llvm::SmallVectorTemplateBase.3" = type { %"class.llvm::SmallVectorTemplateCommon.4" }
%"class.llvm::SmallVectorTemplateCommon.4" = type { %"class.llvm::SmallVectorBase" }
%"struct.llvm::SmallVectorStorage.5" = type { [32 x i8] }
%"struct.llvm::GIMatchTableExecutor::ExecInfoTy" = type { ptr, ptr, ptr, ptr, %"class.llvm::SmallDenseMap" }
%"class.llvm::SmallDenseMap" = type { i32, i32, %"struct.llvm::AlignedCharArrayUnion" }
%"struct.llvm::AlignedCharArrayUnion" = type { [1024 x i8] }
%"class.llvm::LLT" = type { i64 }
%"struct.std::pair.463" = type <{ %"class.llvm::LLT", i32, [4 x i8] }>
%"struct.llvm::SmallDenseMap<llvm::LLT, unsigned int, 64>::LargeRep" = type { ptr, i32 }
%"struct.llvm::detail::DenseMapPair" = type { %"struct.std::pair.base", [4 x i8] }
%"struct.std::pair.base" = type <{ %"class.llvm::LLT", i32 }>

; Function Attrs: mustprogress nounwind uwtable
define linkonce_odr hidden noundef ptr @_ZNK4llvm13SmallDenseMapINS_3LLTEjLj64ENS_12DenseMapInfoIS1_vEENS_6detail12DenseMapPairIS1_jEEE16getInlineBucketsEv(ptr noundef nonnull align 8 dereferenceable(1032) %0) #0 comdat align 2 {
  %2 = alloca ptr, align 8
  store ptr %0, ptr %2, align 8
  %3 = load ptr, ptr %2, align 8
  %4 = getelementptr inbounds nuw %"class.llvm::SmallDenseMap", ptr %3, i32 0, i32 2
  ret ptr %4
}

; Function Attrs: mustprogress nounwind uwtable
define linkonce_odr hidden noundef ptr @_ZNK4llvm13SmallDenseMapINS_3LLTEjLj64ENS_12DenseMapInfoIS1_vEENS_6detail12DenseMapPairIS1_jEEE10getBucketsEv(ptr noundef nonnull align 8 dereferenceable(1032) %0) #0 comdat align 2 {
  %2 = alloca ptr, align 8
  store ptr %0, ptr %2, align 8
  %3 = load ptr, ptr %2, align 8
  %4 = load i32, ptr %3, align 8
  %5 = and i32 %4, 1
  %6 = icmp ne i32 %5, 0
  br i1 %6, label %7, label %9

7:                                                ; preds = %1
  %8 = call noundef ptr @_ZNK4llvm13SmallDenseMapINS_3LLTEjLj64ENS_12DenseMapInfoIS1_vEENS_6detail12DenseMapPairIS1_jEEE16getInlineBucketsEv(ptr noundef nonnull align 8 dereferenceable(1032) %3)
  br label %13

9:                                                ; preds = %1
  %10 = call noundef ptr @_ZNK4llvm13SmallDenseMapINS_3LLTEjLj64ENS_12DenseMapInfoIS1_vEENS_6detail12DenseMapPairIS1_jEEE11getLargeRepEv(ptr noundef nonnull align 8 dereferenceable(1032) %3)
  %11 = getelementptr inbounds nuw %"struct.llvm::SmallDenseMap<llvm::LLT, unsigned int, 64>::LargeRep", ptr %10, i32 0, i32 0
  %12 = load ptr, ptr %11, align 8
  br label %13

13:                                               ; preds = %9, %7
  %14 = phi ptr [ %8, %7 ], [ %12, %9 ]
  ret ptr %14
}

; Function Attrs: mustprogress nounwind uwtable
define linkonce_odr hidden void @_ZN4llvm3LLTC2Ev(ptr noundef nonnull align 8 dereferenceable(8) %0) unnamed_addr #0 comdat align 2 {
  %2 = alloca ptr, align 8
  store ptr %0, ptr %2, align 8
  %3 = load ptr, ptr %2, align 8
  %4 = load i64, ptr %3, align 8
  %5 = and i64 %4, -2
  %6 = or i64 %5, 0
  store i64 %6, ptr %3, align 8
  %7 = load i64, ptr %3, align 8
  %8 = and i64 %7, -3
  %9 = or i64 %8, 0
  store i64 %9, ptr %3, align 8
  %10 = load i64, ptr %3, align 8
  %11 = and i64 %10, -5
  %12 = or i64 %11, 0
  store i64 %12, ptr %3, align 8
  %13 = load i64, ptr %3, align 8
  %14 = and i64 %13, 7
  %15 = or i64 %14, 0
  store i64 %15, ptr %3, align 8
  ret void
}

; Function Attrs: mustprogress nounwind uwtable
define linkonce_odr hidden noundef ptr @_ZNK4llvm13SmallDenseMapINS_3LLTEjLj64ENS_12DenseMapInfoIS1_vEENS_6detail12DenseMapPairIS1_jEEE11getLargeRepEv(ptr noundef nonnull align 8 dereferenceable(1032) %0) #0 comdat align 2 {
  %2 = alloca ptr, align 8
  store ptr %0, ptr %2, align 8
  %3 = load ptr, ptr %2, align 8
  %4 = getelementptr inbounds nuw %"class.llvm::SmallDenseMap", ptr %3, i32 0, i32 2
  ret ptr %4
}

; Function Attrs: mustprogress nounwind uwtable
define linkonce_odr hidden noundef zeroext i1 @_ZNK4llvm3LLTeqERKS0_(ptr noundef nonnull align 8 dereferenceable(8) %0, ptr noundef nonnull align 8 dereferenceable(8) %1) #0 comdat align 2 {
  %3 = alloca ptr, align 8
  %4 = alloca ptr, align 8
  store ptr %0, ptr %3, align 8
  store ptr %1, ptr %4, align 8
  %5 = load ptr, ptr %3, align 8
  %6 = load i64, ptr %5, align 8
  %7 = lshr i64 %6, 1
  %8 = and i64 %7, 1
  %9 = trunc i64 %8 to i32
  %10 = load ptr, ptr %4, align 8
  %11 = load i64, ptr %10, align 8
  %12 = lshr i64 %11, 1
  %13 = and i64 %12, 1
  %14 = trunc i64 %13 to i32
  %15 = icmp eq i32 %9, %14
  br i1 %15, label %16, label %43

16:                                               ; preds = %2
  %17 = load i64, ptr %5, align 8
  %18 = lshr i64 %17, 2
  %19 = and i64 %18, 1
  %20 = trunc i64 %19 to i32
  %21 = load ptr, ptr %4, align 8
  %22 = load i64, ptr %21, align 8
  %23 = lshr i64 %22, 2
  %24 = and i64 %23, 1
  %25 = trunc i64 %24 to i32
  %26 = icmp eq i32 %20, %25
  br i1 %26, label %27, label %43

27:                                               ; preds = %16
  %28 = load i64, ptr %5, align 8
  %29 = and i64 %28, 1
  %30 = trunc i64 %29 to i32
  %31 = load ptr, ptr %4, align 8
  %32 = load i64, ptr %31, align 8
  %33 = and i64 %32, 1
  %34 = trunc i64 %33 to i32
  %35 = icmp eq i32 %30, %34
  br i1 %35, label %36, label %43

36:                                               ; preds = %27
  %37 = load ptr, ptr %4, align 8
  %38 = load i64, ptr %37, align 8
  %39 = lshr i64 %38, 3
  %40 = load i64, ptr %5, align 8
  %41 = lshr i64 %40, 3
  %42 = icmp eq i64 %39, %41
  br label %43

43:                                               ; preds = %36, %27, %16, %2
  %44 = phi i1 [ false, %27 ], [ false, %16 ], [ false, %2 ], [ %42, %36 ]
  ret i1 %44
}

; Function Attrs: mustprogress nounwind uwtable
define linkonce_odr hidden noundef ptr @_ZN4llvm13SmallDenseMapINS_3LLTEjLj64ENS_12DenseMapInfoIS1_vEENS_6detail12DenseMapPairIS1_jEEE10getBucketsEv(ptr noundef nonnull align 8 dereferenceable(1032) %0) #0 comdat align 2 {
  %2 = alloca ptr, align 8
  store ptr %0, ptr %2, align 8
  %3 = load ptr, ptr %2, align 8
  %4 = call noundef ptr @_ZNK4llvm13SmallDenseMapINS_3LLTEjLj64ENS_12DenseMapInfoIS1_vEENS_6detail12DenseMapPairIS1_jEEE10getBucketsEv(ptr noundef nonnull align 8 dereferenceable(1032) %3)
  ret ptr %4
}

; Function Attrs: mustprogress nounwind uwtable
define linkonce_odr hidden i64 @_ZN4llvm12DenseMapInfoINS_3LLTEvE15getTombstoneKeyEv() #0 comdat align 2 {
  %1 = alloca %"class.llvm::LLT", align 8
  call void @_ZN4llvm3LLTC2Ev(ptr noundef nonnull align 8 dereferenceable(8) %1)
  %2 = load i64, ptr %1, align 8
  %3 = and i64 %2, -5
  %4 = or i64 %3, 4
  store i64 %4, ptr %1, align 8
  %5 = getelementptr inbounds nuw %"class.llvm::LLT", ptr %1, i32 0, i32 0
  %6 = load i64, ptr %5, align 8
  ret i64 %6
}

; Function Attrs: mustprogress nounwind uwtable
define linkonce_odr hidden i64 @_ZN4llvm12DenseMapInfoINS_3LLTEvE11getEmptyKeyEv() #0 comdat align 2 {
  %1 = alloca %"class.llvm::LLT", align 8
  call void @_ZN4llvm3LLTC2Ev(ptr noundef nonnull align 8 dereferenceable(8) %1)
  %2 = load i64, ptr %1, align 8
  %3 = and i64 %2, -3
  %4 = or i64 %3, 2
  store i64 %4, ptr %1, align 8
  %5 = getelementptr inbounds nuw %"class.llvm::LLT", ptr %1, i32 0, i32 0
  %6 = load i64, ptr %5, align 8
  ret i64 %6
}

; Function Attrs: mustprogress nounwind uwtable
define linkonce_odr hidden noundef i32 @_ZNK4llvm13SmallDenseMapINS_3LLTEjLj64ENS_12DenseMapInfoIS1_vEENS_6detail12DenseMapPairIS1_jEEE13getNumBucketsEv(ptr noundef nonnull align 8 dereferenceable(1032) %0) #0 comdat align 2 {
  %2 = alloca ptr, align 8
  store ptr %0, ptr %2, align 8
  %3 = load ptr, ptr %2, align 8
  %4 = load i32, ptr %3, align 8
  %5 = and i32 %4, 1
  %6 = icmp ne i32 %5, 0
  br i1 %6, label %7, label %8

7:                                                ; preds = %1
  br label %12

8:                                                ; preds = %1
  %9 = call noundef ptr @_ZNK4llvm13SmallDenseMapINS_3LLTEjLj64ENS_12DenseMapInfoIS1_vEENS_6detail12DenseMapPairIS1_jEEE11getLargeRepEv(ptr noundef nonnull align 8 dereferenceable(1032) %3)
  %10 = getelementptr inbounds nuw %"struct.llvm::SmallDenseMap<llvm::LLT, unsigned int, 64>::LargeRep", ptr %9, i32 0, i32 1
  %11 = load i32, ptr %10, align 8
  br label %12

12:                                               ; preds = %8, %7
  %13 = phi i32 [ 64, %7 ], [ %11, %8 ]
  ret i32 %13
}

; Function Attrs: mustprogress nounwind uwtable
define linkonce_odr hidden noundef ptr @_ZN4llvm13SmallDenseMapINS_3LLTEjLj64ENS_12DenseMapInfoIS1_vEENS_6detail12DenseMapPairIS1_jEEE11getLargeRepEv(ptr noundef nonnull align 8 dereferenceable(1032) %0) #0 comdat align 2 {
  %2 = alloca ptr, align 8
  store ptr %0, ptr %2, align 8
  %3 = load ptr, ptr %2, align 8
  %4 = call noundef ptr @_ZNK4llvm13SmallDenseMapINS_3LLTEjLj64ENS_12DenseMapInfoIS1_vEENS_6detail12DenseMapPairIS1_jEEE11getLargeRepEv(ptr noundef nonnull align 8 dereferenceable(1032) %3)
  ret ptr %4
}

; Function Attrs: mustprogress nounwind uwtable
define linkonce_odr hidden noundef nonnull align 4 dereferenceable(4) ptr @_ZN4llvm6detail12DenseMapPairINS_3LLTEjE9getSecondEv(ptr noundef nonnull align 8 dereferenceable(12) %0) #0 comdat align 2 {
  %2 = alloca ptr, align 8
  store ptr %0, ptr %2, align 8
  %3 = load ptr, ptr %2, align 8
  %4 = getelementptr inbounds nuw %"struct.std::pair.463", ptr %3, i32 0, i32 1
  ret ptr %4
}

; Function Attrs: mustprogress nounwind uwtable
define linkonce_odr hidden noundef zeroext i1 @_ZN4llvm12DenseMapInfoINS_3LLTEvE7isEqualERKS1_S4_(ptr noundef nonnull align 8 dereferenceable(8) %0, ptr noundef nonnull align 8 dereferenceable(8) %1) #0 comdat align 2 {
  %3 = alloca ptr, align 8
  %4 = alloca ptr, align 8
  store ptr %0, ptr %3, align 8
  store ptr %1, ptr %4, align 8
  %5 = load ptr, ptr %3, align 8
  %6 = load ptr, ptr %4, align 8
  %7 = call noundef zeroext i1 @_ZNK4llvm3LLTeqERKS0_(ptr noundef nonnull align 8 dereferenceable(8) %5, ptr noundef nonnull align 8 dereferenceable(8) %6)
  ret i1 %7
}

; Function Attrs: mustprogress nounwind uwtable
define linkonce_odr hidden noundef nonnull align 8 dereferenceable(8) ptr @_ZN4llvm6detail12DenseMapPairINS_3LLTEjE8getFirstEv(ptr noundef nonnull align 8 dereferenceable(12) %0) #0 comdat align 2 {
  %2 = alloca ptr, align 8
  store ptr %0, ptr %2, align 8
  %3 = load ptr, ptr %2, align 8
  %4 = getelementptr inbounds nuw %"struct.std::pair.463", ptr %3, i32 0, i32 0
  ret ptr %4
}

; Function Attrs: mustprogress nounwind uwtable
define linkonce_odr hidden noundef ptr @_ZN4llvm12DenseMapBaseINS_13SmallDenseMapINS_3LLTEjLj64ENS_12DenseMapInfoIS2_vEENS_6detail12DenseMapPairIS2_jEEEES2_jS4_S7_E13getBucketsEndEv(ptr noundef nonnull align 1 dereferenceable(1) %0) #0 comdat align 2 {
  %2 = alloca ptr, align 8
  store ptr %0, ptr %2, align 8
  %3 = load ptr, ptr %2, align 8
  %4 = call noundef ptr @_ZN4llvm12DenseMapBaseINS_13SmallDenseMapINS_3LLTEjLj64ENS_12DenseMapInfoIS2_vEENS_6detail12DenseMapPairIS2_jEEEES2_jS4_S7_E10getBucketsEv(ptr noundef nonnull align 1 dereferenceable(1) %3)
  %5 = call noundef i32 @_ZNK4llvm12DenseMapBaseINS_13SmallDenseMapINS_3LLTEjLj64ENS_12DenseMapInfoIS2_vEENS_6detail12DenseMapPairIS2_jEEEES2_jS4_S7_E13getNumBucketsEv(ptr noundef nonnull align 1 dereferenceable(1) %3)
  %6 = zext i32 %5 to i64
  %7 = getelementptr inbounds %"struct.llvm::detail::DenseMapPair", ptr %4, i64 %6
  ret ptr %7
}

; Function Attrs: mustprogress nounwind uwtable
define linkonce_odr hidden noundef ptr @_ZN4llvm12DenseMapBaseINS_13SmallDenseMapINS_3LLTEjLj64ENS_12DenseMapInfoIS2_vEENS_6detail12DenseMapPairIS2_jEEEES2_jS4_S7_E10getBucketsEv(ptr noundef nonnull align 1 dereferenceable(1) %0) #0 comdat align 2 {
  %2 = alloca ptr, align 8
  store ptr %0, ptr %2, align 8
  %3 = load ptr, ptr %2, align 8
  %4 = call noundef ptr @_ZN4llvm13SmallDenseMapINS_3LLTEjLj64ENS_12DenseMapInfoIS1_vEENS_6detail12DenseMapPairIS1_jEEE10getBucketsEv(ptr noundef nonnull align 8 dereferenceable(1032) %3)
  ret ptr %4
}

; Function Attrs: mustprogress nounwind uwtable
define linkonce_odr hidden i64 @_ZN4llvm12DenseMapBaseINS_13SmallDenseMapINS_3LLTEjLj64ENS_12DenseMapInfoIS2_vEENS_6detail12DenseMapPairIS2_jEEEES2_jS4_S7_E15getTombstoneKeyEv() #0 comdat align 2 {
  %1 = alloca %"class.llvm::LLT", align 8
  %2 = call i64 @_ZN4llvm12DenseMapInfoINS_3LLTEvE15getTombstoneKeyEv()
  %3 = getelementptr inbounds nuw %"class.llvm::LLT", ptr %1, i32 0, i32 0
  store i64 %2, ptr %3, align 8
  %4 = getelementptr inbounds nuw %"class.llvm::LLT", ptr %1, i32 0, i32 0
  %5 = load i64, ptr %4, align 8
  ret i64 %5
}

; Function Attrs: mustprogress nounwind uwtable
define linkonce_odr hidden i64 @_ZN4llvm12DenseMapBaseINS_13SmallDenseMapINS_3LLTEjLj64ENS_12DenseMapInfoIS2_vEENS_6detail12DenseMapPairIS2_jEEEES2_jS4_S7_E11getEmptyKeyEv() #0 comdat align 2 {
  %1 = alloca %"class.llvm::LLT", align 8
  %2 = call i64 @_ZN4llvm12DenseMapInfoINS_3LLTEvE11getEmptyKeyEv()
  %3 = getelementptr inbounds nuw %"class.llvm::LLT", ptr %1, i32 0, i32 0
  store i64 %2, ptr %3, align 8
  %4 = getelementptr inbounds nuw %"class.llvm::LLT", ptr %1, i32 0, i32 0
  %5 = load i64, ptr %4, align 8
  ret i64 %5
}

; Function Attrs: mustprogress nounwind uwtable
define linkonce_odr hidden noundef i32 @_ZNK4llvm12DenseMapBaseINS_13SmallDenseMapINS_3LLTEjLj64ENS_12DenseMapInfoIS2_vEENS_6detail12DenseMapPairIS2_jEEEES2_jS4_S7_E13getNumBucketsEv(ptr noundef nonnull align 1 dereferenceable(1) %0) #0 comdat align 2 {
  %2 = alloca ptr, align 8
  store ptr %0, ptr %2, align 8
  %3 = load ptr, ptr %2, align 8
  %4 = call noundef i32 @_ZNK4llvm13SmallDenseMapINS_3LLTEjLj64ENS_12DenseMapInfoIS1_vEENS_6detail12DenseMapPairIS1_jEEE13getNumBucketsEv(ptr noundef nonnull align 8 dereferenceable(1032) %3)
  ret i32 %4
}

; Function Attrs: mustprogress nounwind uwtable
define linkonce_odr hidden void @_ZN4llvm13SmallDenseMapINS_3LLTEjLj64ENS_12DenseMapInfoIS1_vEENS_6detail12DenseMapPairIS1_jEEE17deallocateBucketsEv(ptr noundef nonnull align 8 dereferenceable(1032) %0) #0 comdat align 2 {
  %2 = alloca ptr, align 8
  store ptr %0, ptr %2, align 8
  %3 = load ptr, ptr %2, align 8
  %4 = load i32, ptr %3, align 8
  %5 = and i32 %4, 1
  %6 = icmp ne i32 %5, 0
  br i1 %6, label %7, label %8

7:                                                ; preds = %1
  br label %18

8:                                                ; preds = %1
  %9 = call noundef ptr @_ZN4llvm13SmallDenseMapINS_3LLTEjLj64ENS_12DenseMapInfoIS1_vEENS_6detail12DenseMapPairIS1_jEEE11getLargeRepEv(ptr noundef nonnull align 8 dereferenceable(1032) %3)
  %10 = getelementptr inbounds nuw %"struct.llvm::SmallDenseMap<llvm::LLT, unsigned int, 64>::LargeRep", ptr %9, i32 0, i32 0
  %11 = load ptr, ptr %10, align 8
  %12 = call noundef ptr @_ZN4llvm13SmallDenseMapINS_3LLTEjLj64ENS_12DenseMapInfoIS1_vEENS_6detail12DenseMapPairIS1_jEEE11getLargeRepEv(ptr noundef nonnull align 8 dereferenceable(1032) %3)
  %13 = getelementptr inbounds nuw %"struct.llvm::SmallDenseMap<llvm::LLT, unsigned int, 64>::LargeRep", ptr %12, i32 0, i32 1
  %14 = load i32, ptr %13, align 8
  %15 = zext i32 %14 to i64
  %16 = mul i64 16, %15
  call void @_ZN4llvm17deallocate_bufferEPvmm(ptr noundef %11, i64 noundef %16, i64 noundef 8)
  %17 = call noundef ptr @_ZN4llvm13SmallDenseMapINS_3LLTEjLj64ENS_12DenseMapInfoIS1_vEENS_6detail12DenseMapPairIS1_jEEE11getLargeRepEv(ptr noundef nonnull align 8 dereferenceable(1032) %3)
  br label %18

18:                                               ; preds = %8, %7
  ret void
}

; Function Attrs: mustprogress nounwind uwtable
define linkonce_odr hidden void @_ZN4llvm12DenseMapBaseINS_13SmallDenseMapINS_3LLTEjLj64ENS_12DenseMapInfoIS2_vEENS_6detail12DenseMapPairIS2_jEEEES2_jS4_S7_E10destroyAllEv(ptr noundef nonnull align 1 dereferenceable(1) %0) #0 comdat align 2 {
  %2 = alloca ptr, align 8
  %3 = alloca %"class.llvm::LLT", align 8
  %4 = alloca %"class.llvm::LLT", align 8
  %5 = alloca ptr, align 8
  %6 = alloca ptr, align 8
  store ptr %0, ptr %2, align 8
  %7 = load ptr, ptr %2, align 8
  %8 = call noundef i32 @_ZNK4llvm12DenseMapBaseINS_13SmallDenseMapINS_3LLTEjLj64ENS_12DenseMapInfoIS2_vEENS_6detail12DenseMapPairIS2_jEEEES2_jS4_S7_E13getNumBucketsEv(ptr noundef nonnull align 1 dereferenceable(1) %7)
  %9 = icmp eq i32 %8, 0
  br i1 %9, label %10, label %11

10:                                               ; preds = %1
  br label %39

11:                                               ; preds = %1
  %12 = call i64 @_ZN4llvm12DenseMapBaseINS_13SmallDenseMapINS_3LLTEjLj64ENS_12DenseMapInfoIS2_vEENS_6detail12DenseMapPairIS2_jEEEES2_jS4_S7_E11getEmptyKeyEv()
  %13 = getelementptr inbounds nuw %"class.llvm::LLT", ptr %3, i32 0, i32 0
  store i64 %12, ptr %13, align 8
  %14 = call i64 @_ZN4llvm12DenseMapBaseINS_13SmallDenseMapINS_3LLTEjLj64ENS_12DenseMapInfoIS2_vEENS_6detail12DenseMapPairIS2_jEEEES2_jS4_S7_E15getTombstoneKeyEv()
  %15 = getelementptr inbounds nuw %"class.llvm::LLT", ptr %4, i32 0, i32 0
  store i64 %14, ptr %15, align 8
  %16 = call noundef ptr @_ZN4llvm12DenseMapBaseINS_13SmallDenseMapINS_3LLTEjLj64ENS_12DenseMapInfoIS2_vEENS_6detail12DenseMapPairIS2_jEEEES2_jS4_S7_E10getBucketsEv(ptr noundef nonnull align 1 dereferenceable(1) %7)
  store ptr %16, ptr %5, align 8
  %17 = call noundef ptr @_ZN4llvm12DenseMapBaseINS_13SmallDenseMapINS_3LLTEjLj64ENS_12DenseMapInfoIS2_vEENS_6detail12DenseMapPairIS2_jEEEES2_jS4_S7_E13getBucketsEndEv(ptr noundef nonnull align 1 dereferenceable(1) %7)
  store ptr %17, ptr %6, align 8
  br label %18

18:                                               ; preds = %36, %11
  %19 = load ptr, ptr %5, align 8
  %20 = load ptr, ptr %6, align 8
  %21 = icmp ne ptr %19, %20
  br i1 %21, label %22, label %39

22:                                               ; preds = %18
  %23 = load ptr, ptr %5, align 8
  %24 = call noundef nonnull align 8 dereferenceable(8) ptr @_ZN4llvm6detail12DenseMapPairINS_3LLTEjE8getFirstEv(ptr noundef nonnull align 8 dereferenceable(12) %23)
  %25 = call noundef zeroext i1 @_ZN4llvm12DenseMapInfoINS_3LLTEvE7isEqualERKS1_S4_(ptr noundef nonnull align 8 dereferenceable(8) %24, ptr noundef nonnull align 8 dereferenceable(8) %3)
  br i1 %25, label %33, label %26

26:                                               ; preds = %22
  %27 = load ptr, ptr %5, align 8
  %28 = call noundef nonnull align 8 dereferenceable(8) ptr @_ZN4llvm6detail12DenseMapPairINS_3LLTEjE8getFirstEv(ptr noundef nonnull align 8 dereferenceable(12) %27)
  %29 = call noundef zeroext i1 @_ZN4llvm12DenseMapInfoINS_3LLTEvE7isEqualERKS1_S4_(ptr noundef nonnull align 8 dereferenceable(8) %28, ptr noundef nonnull align 8 dereferenceable(8) %4)
  br i1 %29, label %33, label %30

30:                                               ; preds = %26
  %31 = load ptr, ptr %5, align 8
  %32 = call noundef nonnull align 4 dereferenceable(4) ptr @_ZN4llvm6detail12DenseMapPairINS_3LLTEjE9getSecondEv(ptr noundef nonnull align 8 dereferenceable(12) %31)
  br label %33

33:                                               ; preds = %30, %26, %22
  %34 = load ptr, ptr %5, align 8
  %35 = call noundef nonnull align 8 dereferenceable(8) ptr @_ZN4llvm6detail12DenseMapPairINS_3LLTEjE8getFirstEv(ptr noundef nonnull align 8 dereferenceable(12) %34)
  br label %36

36:                                               ; preds = %33
  %37 = load ptr, ptr %5, align 8
  %38 = getelementptr inbounds %"struct.llvm::detail::DenseMapPair", ptr %37, i32 1
  store ptr %38, ptr %5, align 8
  br label %18, !llvm.loop !14

39:                                               ; preds = %18, %10
  ret void
}

; Function Attrs: mustprogress nounwind uwtable
define linkonce_odr hidden void @_ZN4llvm13SmallDenseMapINS_3LLTEjLj64ENS_12DenseMapInfoIS1_vEENS_6detail12DenseMapPairIS1_jEEED2Ev(ptr noundef nonnull align 8 dereferenceable(1032) %0) unnamed_addr #0 comdat align 2 {
  %2 = alloca ptr, align 8
  store ptr %0, ptr %2, align 8
  %3 = load ptr, ptr %2, align 8
  call void @_ZN4llvm12DenseMapBaseINS_13SmallDenseMapINS_3LLTEjLj64ENS_12DenseMapInfoIS2_vEENS_6detail12DenseMapPairIS2_jEEEES2_jS4_S7_E10destroyAllEv(ptr noundef nonnull align 1 dereferenceable(1) %3)
  call void @_ZN4llvm13SmallDenseMapINS_3LLTEjLj64ENS_12DenseMapInfoIS1_vEENS_6detail12DenseMapPairIS1_jEEE17deallocateBucketsEv(ptr noundef nonnull align 8 dereferenceable(1032) %3)
  ret void
}

; Function Attrs: mustprogress nounwind uwtable
define internal void @_ZN4llvm20GIMatchTableExecutor10ExecInfoTyINS_6BitsetILj89EEEMN12_GLOBAL__N_124RISCVInstructionSelectorEKFSt8optionalINS_11SmallVectorISt8functionIFvRNS_19MachineInstrBuilderEEELj4EEEERNS_14MachineOperandEEMS5_KFvSA_RKNS_12MachineInstrEiEED2Ev(ptr noundef nonnull align 8 dereferenceable(1064) %0) unnamed_addr #0 align 2 {
  %2 = alloca ptr, align 8
  store ptr %0, ptr %2, align 8
  %3 = load ptr, ptr %2, align 8
  %4 = getelementptr inbounds nuw %"struct.llvm::GIMatchTableExecutor::ExecInfoTy", ptr %3, i32 0, i32 4
  call void @_ZN4llvm13SmallDenseMapINS_3LLTEjLj64ENS_12DenseMapInfoIS1_vEENS_6detail12DenseMapPairIS1_jEEED2Ev(ptr noundef nonnull align 8 dereferenceable(1032) %4) #16
  ret void
}

; Function Attrs: mustprogress nounwind uwtable
define internal void @_ZN12_GLOBAL__N_124RISCVInstructionSelectorD2Ev(ptr noundef nonnull align 8 dereferenceable(1392) %0) unnamed_addr #0 align 2 {
  %2 = alloca ptr, align 8
  store ptr %0, ptr %2, align 8
  %3 = load ptr, ptr %2, align 8
  store ptr getelementptr inbounds inrange(-16, 96) ({ [14 x ptr] }, ptr @_ZTVN12_GLOBAL__N_124RISCVInstructionSelectorE, i32 0, i32 0, i32 2), ptr %3, align 8
  %4 = getelementptr inbounds nuw %"class.(anonymous namespace)::RISCVInstructionSelector", ptr %3, i32 0, i32 10
  call void @_ZN4llvm20GIMatchTableExecutor10ExecInfoTyINS_6BitsetILj89EEEMN12_GLOBAL__N_124RISCVInstructionSelectorEKFSt8optionalINS_11SmallVectorISt8functionIFvRNS_19MachineInstrBuilderEEELj4EEEERNS_14MachineOperandEEMS5_KFvSA_RKNS_12MachineInstrEiEED2Ev(ptr noundef nonnull align 8 dereferenceable(1064) %4) #16
  %5 = getelementptr inbounds nuw %"class.(anonymous namespace)::RISCVInstructionSelector", ptr %3, i32 0, i32 9
  call void @_ZN4llvm20GIMatchTableExecutor12MatcherStateD2Ev(ptr noundef nonnull align 8 dereferenceable(168) %5) #16
  call void @_ZN4llvm19InstructionSelectorD2Ev(ptr noundef nonnull align 8 dereferenceable(80) %3) #16
  ret void
}

; Function Attrs: mustprogress nounwind uwtable
define internal void @_ZN12_GLOBAL__N_124RISCVInstructionSelectorD0Ev(ptr noundef nonnull align 8 dereferenceable(1392) %0) unnamed_addr #0 align 2 {
  %2 = alloca ptr, align 8
  store ptr %0, ptr %2, align 8
  %3 = load ptr, ptr %2, align 8
  call void @_ZN12_GLOBAL__N_124RISCVInstructionSelectorD2Ev(ptr noundef nonnull align 8 dereferenceable(1392) %3) #16
  call void @_ZdlPvm(ptr noundef %3, i64 noundef 1392) #17
  ret void
}