; Function Attrs: mustprogress nounwind uwtable
define internal void @_ZN12_GLOBAL__N_124RISCVInstructionSelectorD0Ev(ptr noundef nonnull align 8 dereferenceable(1392) %0) unnamed_addr #0 align 2 {
  store ptr getelementptr inbounds inrange(-16, 96) (i8, ptr @_ZTVN12_GLOBAL__N_124RISCVInstructionSelectorE, i64 16), ptr %0, align 8
  %2 = getelementptr inbounds i8, ptr %0, i64 360
  %3 = load i32, ptr %2, align 8
  %4 = and i32 %3, 1
  %.not.i.i.i.i = icmp eq i32 %4, 0
  br i1 %.not.i.i.i.i, label %5, label %_ZN12_GLOBAL__N_124RISCVInstructionSelectorD2Ev.exit

5:                                                ; preds = %1
  %6 = getelementptr inbounds i8, ptr %0, i64 368
  %7 = load ptr, ptr %6, align 8
  %8 = getelementptr inbounds i8, ptr %0, i64 376
  %9 = load i32, ptr %8, align 8
  %10 = zext i32 %9 to i64
  %11 = shl nuw nsw i64 %10, 4
  tail call void @_ZN4llvm17deallocate_bufferEPvmm(ptr noundef %7, i64 noundef %11, i64 noundef 8) #24
  br label %_ZN12_GLOBAL__N_124RISCVInstructionSelectorD2Ev.exit

_ZN12_GLOBAL__N_124RISCVInstructionSelectorD2Ev.exit: ; preds = %1, %5
  %12 = getelementptr inbounds nuw i8, ptr %0, i64 160
  tail call void @_ZN4llvm20GIMatchTableExecutor12MatcherStateD2Ev(ptr noundef nonnull align 8 dereferenceable(168) %12) #24
  tail call void @_ZN4llvm19InstructionSelectorD2Ev(ptr noundef nonnull align 8 dereferenceable(80) %0) #24
  tail call void @_ZdlPvm(ptr noundef nonnull %0, i64 noundef 1392) #25
  ret void
}